target datalayout = "e-m:e-p270:32:32-p271:32:32-p272:64:64-i64:64-i128:128-f80:128-n8:16:32:64-S128"
target triple = "x86_64-unknown-linux-gnu"

; Function Attrs: mustprogress nounwind uwtable
define internal noundef zeroext i8 @_ZN6icu_7512_GLOBAL__N_115getTwoByteTrailEi(i32 noundef %c) #0 {
entry:
  %c.addr = alloca i32, align 4
  store i32 %c, ptr %c.addr, align 4
  %0 = load i32, ptr %c.addr, align 4
  %and = and i32 %0, 63
  %or = or i32 %and, 128
  %conv = trunc i32 %or to i8
  ret i8 %conv
}

; Function Attrs: mustprogress nounwind uwtable
define internal noundef zeroext i8 @_ZN6icu_7512_GLOBAL__N_114getTwoByteLeadEi(i32 noundef %c) #0 {
entry:
  %c.addr = alloca i32, align 4
  store i32 %c, ptr %c.addr, align 4
  %0 = load i32, ptr %c.addr, align 4
  %shr = ashr i32 %0, 6
  %or = or i32 %shr, 192
  %conv = trunc i32 %or to i8
  ret i8 %conv
}

; Function Attrs: mustprogress uwtable
define void @_ZN6icu_7512ByteSinkUtil14appendTwoBytesEiRNS_8ByteSinkE(i32 noundef %c, ptr noundef nonnull align 8 dereferenceable(8) %sink) #1 align 2 {
entry:
  %c.addr = alloca i32, align 4
  %sink.addr = alloca ptr, align 8
  %s8 = alloca [2 x i8], align 1
  store i32 %c, ptr %c.addr, align 4
  store ptr %sink, ptr %sink.addr, align 8
  %arrayinit.begin = getelementptr inbounds [2 x i8], ptr %s8, i64 0, i64 0
  %0 = load i32, ptr %c.addr, align 4
  %call = call noundef zeroext i8 @_ZN6icu_7512_GLOBAL__N_114getTwoByteLeadEi(i32 noundef %0)
  store i8 %call, ptr %arrayinit.begin, align 1
  %arrayinit.element = getelementptr inbounds i8, ptr %arrayinit.begin, i64 1
  %1 = load i32, ptr %c.addr, align 4
  %call1 = call noundef zeroext i8 @_ZN6icu_7512_GLOBAL__N_115getTwoByteTrailEi(i32 noundef %1)
  store i8 %call1, ptr %arrayinit.element, align 1
  %2 = load ptr, ptr %sink.addr, align 8
  %arraydecay = getelementptr inbounds [2 x i8], ptr %s8, i64 0, i64 0
  %vtable = load ptr, ptr %2, align 8
  %vfn = getelementptr inbounds ptr, ptr %vtable, i64 2
  %3 = load ptr, ptr %vfn, align 8
  call void %3(ptr noundef nonnull align 8 dereferenceable(8) %2, ptr noundef %arraydecay, i32 noundef 2)
  ret void
}