; Function Attrs: mustprogress uwtable
define void @_ZN6icu_7512ByteSinkUtil14appendTwoBytesEiRNS_8ByteSinkE(i32 noundef %c, ptr noundef nonnull align 8 dereferenceable(8) %sink) local_unnamed_addr #1 align 2 {
entry:
  %s8 = alloca [2 x i8], align 1
  %shr.i = lshr i32 %c, 6
  %0 = trunc i32 %shr.i to i8
  %conv.i = or i8 %0, -64
  store i8 %conv.i, ptr %s8, align 1
  %arrayinit.element = getelementptr inbounds i8, ptr %s8, i64 1
  %1 = trunc i32 %c to i8
  %2 = and i8 %1, 63
  %conv.i2 = or disjoint i8 %2, -128
  store i8 %conv.i2, ptr %arrayinit.element, align 1
  %vtable = load ptr, ptr %sink, align 8
  %vfn = getelementptr inbounds i8, ptr %vtable, i64 16
  %3 = load ptr, ptr %vfn, align 8
  call void %3(ptr noundef nonnull align 8 dereferenceable(8) %sink, ptr noundef nonnull %s8, i32 noundef 2)
  ret void
}